; ModuleID = '1573.c'
source_filename = "1573.c"
target datalayout = "e-m:e-p270:32:32-p271:32:32-p272:64:64-i64:64-f80:128-n8:16:32:64-S128"
target triple = "x86_64-pc-linux-gnu"

@.str = private unnamed_addr constant [3 x i8] c"%d\00", align 1
@.str.1 = private unnamed_addr constant [7 x i8] c"%d %d\0A\00", align 1

; Function Attrs: noinline nounwind uwtable
define dso_local i32 @main() #0 {
  %1 = alloca i32, align 4
  %2 = alloca [20001 x i32], align 16
  %3 = alloca i32, align 4
  %4 = alloca i32, align 4
  %5 = alloca i32, align 4
  %6 = alloca i32, align 4
  store i32 0, i32* %1, align 4
  store i32 1, i32* %3, align 4
  br label %7

7:                                                ; preds = %14, %0
  %8 = load i32, i32* %3, align 4
  %9 = icmp sle i32 %8, 10000
  br i1 %9, label %10, label %17

10:                                               ; preds = %7
  %11 = load i32, i32* %3, align 4
  %12 = sext i32 %11 to i64
  %13 = getelementptr inbounds [20001 x i32], [20001 x i32]* %2, i64 0, i64 %12
  store i32 1, i32* %13, align 4
  br label %14

14:                                               ; preds = %10
  %15 = load i32, i32* %3, align 4
  %16 = add nsw i32 %15, 1
  store i32 %16, i32* %3, align 4
  br label %7

17:                                               ; preds = %7
  %18 = getelementptr inbounds [20001 x i32], [20001 x i32]* %2, i64 0, i64 0
  store i32 0, i32* %18, align 16
  %19 = getelementptr inbounds [20001 x i32], [20001 x i32]* %2, i64 0, i64 1
  store i32 0, i32* %19, align 4
  store i32 2, i32* %3, align 4
  br label %20

20:                                               ; preds = %43, %17
  store i32 2, i32* %6, align 4
  %21 = load i32, i32* %3, align 4
  %22 = sext i32 %21 to i64
  %23 = getelementptr inbounds [20001 x i32], [20001 x i32]* %2, i64 0, i64 %22
  %24 = load i32, i32* %23, align 4
  %25 = icmp eq i32 %24, 1
  br i1 %25, label %26, label %40

26:                                               ; preds = %20
  br label %27

27:                                               ; preds = %36, %26
  %28 = load i32, i32* %3, align 4
  %29 = load i32, i32* %6, align 4
  %30 = mul nsw i32 %28, %29
  store i32 %30, i32* %4, align 4
  %31 = load i32, i32* %4, align 4
  %32 = sext i32 %31 to i64
  %33 = getelementptr inbounds [20001 x i32], [20001 x i32]* %2, i64 0, i64 %32
  store i32 0, i32* %33, align 4
  %34 = load i32, i32* %6, align 4
  %35 = add nsw i32 %34, 1
  store i32 %35, i32* %6, align 4
  br label %36

36:                                               ; preds = %27
  %37 = load i32, i32* %4, align 4
  %38 = icmp sle i32 %37, 10000
  br i1 %38, label %27, label %39

39:                                               ; preds = %36
  br label %40

40:                                               ; preds = %39, %20
  %41 = load i32, i32* %3, align 4
  %42 = add nsw i32 %41, 1
  store i32 %42, i32* %3, align 4
  br label %43

43:                                               ; preds = %40
  %44 = load i32, i32* %3, align 4
  %45 = icmp sle i32 %44, 10000
  br i1 %45, label %20, label %46

46:                                               ; preds = %43
  %47 = getelementptr inbounds [20001 x i32], [20001 x i32]* %2, i64 0, i64 2
  store i32 0, i32* %47, align 8
  %48 = call i32 (i8*, ...) @__isoc99_scanf(i8* getelementptr inbounds ([3 x i8], [3 x i8]* @.str, i64 0, i64 0), i32* %5)
  store i32 3, i32* %3, align 4
  br label %49

49:                                               ; preds = %71, %46
  %50 = load i32, i32* %5, align 4
  %51 = load i32, i32* %3, align 4
  %52 = sub nsw i32 %50, %51
  store i32 %52, i32* %6, align 4
  %53 = load i32, i32* %3, align 4
  %54 = sext i32 %53 to i64
  %55 = getelementptr inbounds [20001 x i32], [20001 x i32]* %2, i64 0, i64 %54
  %56 = load i32, i32* %55, align 4
  %57 = icmp eq i32 %56, 1
  br i1 %57, label %58, label %68

58:                                               ; preds = %49
  %59 = load i32, i32* %6, align 4
  %60 = sext i32 %59 to i64
  %61 = getelementptr inbounds [20001 x i32], [20001 x i32]* %2, i64 0, i64 %60
  %62 = load i32, i32* %61, align 4
  %63 = icmp eq i32 %62, 1
  br i1 %63, label %64, label %68

64:                                               ; preds = %58
  %65 = load i32, i32* %3, align 4
  %66 = load i32, i32* %6, align 4
  %67 = call i32 (i8*, ...) @printf(i8* getelementptr inbounds ([7 x i8], [7 x i8]* @.str.1, i64 0, i64 0), i32 %65, i32 %66)
  br label %68

68:                                               ; preds = %64, %58, %49
  %69 = load i32, i32* %3, align 4
  %70 = add nsw i32 %69, 1
  store i32 %70, i32* %3, align 4
  br label %71

71:                                               ; preds = %68
  %72 = load i32, i32* %3, align 4
  %73 = load i32, i32* %5, align 4
  %74 = sdiv i32 %73, 2
  %75 = icmp sle i32 %72, %74
  br i1 %75, label %49, label %76

76:                                               ; preds = %71
  ret i32 0
}

declare dso_local i32 @__isoc99_scanf(i8*, ...) #1

declare dso_local i32 @printf(i8*, ...) #1


!llvm.module.flags = !{!0}
!llvm.ident = !{!1}

!0 = !{i32 1, !"wchar_size", i32 4}
!1 = !{!"clang version 10.0.0-4ubuntu1 "}
